target datalayout = "e-m:e-p270:32:32-p271:32:32-p272:64:64-i64:64-i128:128-f80:128-n8:16:32:64-S128"
target triple = "x86_64-pc-linux-gnu"

%struct.ml_dsa_params_st = type { ptr, i32, i32, i32, i32, i32, i64, i64, i32, i32, i32, i32, i64, i64, i64 }

@.str.2 = private unnamed_addr constant [4 x i8] c"pub\00", align 1
@.str.3 = private unnamed_addr constant [60 x i8] c"../openssl/providers/implementations/keymgmt/ml_dsa_kmgmt.c\00", align 1
@__func__.ml_dsa_key_fromdata = private unnamed_addr constant [20 x i8] c"ml_dsa_key_fromdata\00", align 1
@.str.4 = private unnamed_addr constant [29 x i8] c"Invalid %s public key length\00", align 1
@.str.5 = private unnamed_addr constant [5 x i8] c"seed\00", align 1
@.str.6 = private unnamed_addr constant [5 x i8] c"priv\00", align 1
@.str.7 = private unnamed_addr constant [30 x i8] c"Invalid %s private key length\00", align 1

; Function Attrs: nounwind uwtable
define internal i32 @ml_dsa_key_fromdata(ptr noundef %0, ptr noundef %1, i32 noundef %2) #0 {
  %4 = alloca i32, align 4
  %5 = alloca ptr, align 8
  %6 = alloca ptr, align 8
  %7 = alloca i32, align 4
  %8 = alloca ptr, align 8
  %9 = alloca ptr, align 8
  %10 = alloca ptr, align 8
  %11 = alloca ptr, align 8
  %12 = alloca ptr, align 8
  %13 = alloca i64, align 8
  %14 = alloca i64, align 8
  %15 = alloca i64, align 8
  %16 = alloca i32, align 4
  store ptr %0, ptr %5, align 8, !tbaa !9
  store ptr %1, ptr %6, align 8, !tbaa !11
  store i32 %2, ptr %7, align 4, !tbaa !7
  call void @llvm.lifetime.start.p0(i64 8, ptr %8) #5
  store ptr null, ptr %8, align 8, !tbaa !11
  call void @llvm.lifetime.start.p0(i64 8, ptr %9) #5
  %17 = load ptr, ptr %5, align 8, !tbaa !9
  %18 = call ptr @ossl_ml_dsa_key_params(ptr noundef %17)
  store ptr %18, ptr %9, align 8, !tbaa !25
  call void @llvm.lifetime.start.p0(i64 8, ptr %10) #5
  store ptr null, ptr %10, align 8, !tbaa !13
  call void @llvm.lifetime.start.p0(i64 8, ptr %11) #5
  store ptr null, ptr %11, align 8, !tbaa !13
  call void @llvm.lifetime.start.p0(i64 8, ptr %12) #5
  store ptr null, ptr %12, align 8, !tbaa !13
  call void @llvm.lifetime.start.p0(i64 8, ptr %13) #5
  store i64 0, ptr %13, align 8, !tbaa !16
  call void @llvm.lifetime.start.p0(i64 8, ptr %14) #5
  store i64 0, ptr %14, align 8, !tbaa !16
  call void @llvm.lifetime.start.p0(i64 8, ptr %15) #5
  store i64 0, ptr %15, align 8, !tbaa !16
  %19 = load ptr, ptr %6, align 8, !tbaa !11
  %20 = call ptr @OSSL_PARAM_locate_const(ptr noundef %19, ptr noundef @.str.2)
  store ptr %20, ptr %8, align 8, !tbaa !11
  %21 = load ptr, ptr %8, align 8, !tbaa !11
  %22 = icmp ne ptr %21, null
  br i1 %22, label %23, label %28

23:                                               ; preds = %3
  %24 = load ptr, ptr %8, align 8, !tbaa !11
  %25 = call i32 @OSSL_PARAM_get_octet_string_ptr(ptr noundef %24, ptr noundef %10, ptr noundef %13)
  %26 = icmp ne i32 %25, 0
  br i1 %26, label %28, label %27

27:                                               ; preds = %23
  store i32 0, ptr %4, align 4
  store i32 1, ptr %16, align 4
  br label %160

28:                                               ; preds = %23, %3
  %29 = load ptr, ptr %10, align 8, !tbaa !13
  %30 = icmp ne ptr %29, null
  br i1 %30, label %31, label %41

31:                                               ; preds = %28
  %32 = load i64, ptr %13, align 8, !tbaa !16
  %33 = load ptr, ptr %9, align 8, !tbaa !25
  %34 = getelementptr inbounds nuw %struct.ml_dsa_params_st, ptr %33, i32 0, i32 13
  %35 = load i64, ptr %34, align 8, !tbaa !27
  %36 = icmp ne i64 %32, %35
  br i1 %36, label %37, label %41

37:                                               ; preds = %31
  call void @ERR_new()
  call void @ERR_set_debug(ptr noundef @.str.3, i32 noundef 186, ptr noundef @__func__.ml_dsa_key_fromdata)
  %38 = load ptr, ptr %9, align 8, !tbaa !25
  %39 = getelementptr inbounds nuw %struct.ml_dsa_params_st, ptr %38, i32 0, i32 0
  %40 = load ptr, ptr %39, align 8, !tbaa !29
  call void (i32, i32, ptr, ...) @ERR_set_error(i32 noundef 57, i32 noundef 105, ptr noundef @.str.4, ptr noundef %40)
  store i32 0, ptr %4, align 4
  store i32 1, ptr %16, align 4
  br label %160

41:                                               ; preds = %31, %28
  %42 = load i32, ptr %7, align 4, !tbaa !7
  %43 = icmp ne i32 %42, 0
  br i1 %43, label %44, label %85

44:                                               ; preds = %41
  %45 = load ptr, ptr %6, align 8, !tbaa !11
  %46 = call ptr @OSSL_PARAM_locate_const(ptr noundef %45, ptr noundef @.str.5)
  store ptr %46, ptr %8, align 8, !tbaa !11
  %47 = load ptr, ptr %8, align 8, !tbaa !11
  %48 = icmp ne ptr %47, null
  br i1 %48, label %49, label %54

49:                                               ; preds = %44
  %50 = load ptr, ptr %8, align 8, !tbaa !11
  %51 = call i32 @OSSL_PARAM_get_octet_string_ptr(ptr noundef %50, ptr noundef %12, ptr noundef %15)
  %52 = icmp ne i32 %51, 0
  br i1 %52, label %54, label %53

53:                                               ; preds = %49
  store i32 0, ptr %4, align 4
  store i32 1, ptr %16, align 4
  br label %160

54:                                               ; preds = %49, %44
  %55 = load ptr, ptr %12, align 8, !tbaa !13
  %56 = icmp ne ptr %55, null
  br i1 %56, label %57, label %61

57:                                               ; preds = %54
  %58 = load i64, ptr %15, align 8, !tbaa !16
  %59 = icmp ne i64 %58, 32
  br i1 %59, label %60, label %61

60:                                               ; preds = %57
  call void @ERR_new()
  call void @ERR_set_debug(ptr noundef @.str.3, i32 noundef 199, ptr noundef @__func__.ml_dsa_key_fromdata)
  call void (i32, i32, ptr, ...) @ERR_set_error(i32 noundef 57, i32 noundef 154, ptr noundef null)
  store i32 0, ptr %4, align 4
  store i32 1, ptr %16, align 4
  br label %160

61:                                               ; preds = %57, %54
  %62 = load ptr, ptr %6, align 8, !tbaa !11
  %63 = call ptr @OSSL_PARAM_locate_const(ptr noundef %62, ptr noundef @.str.6)
  store ptr %63, ptr %8, align 8, !tbaa !11
  %64 = load ptr, ptr %8, align 8, !tbaa !11
  %65 = icmp ne ptr %64, null
  br i1 %65, label %66, label %71

66:                                               ; preds = %61
  %67 = load ptr, ptr %8, align 8, !tbaa !11
  %68 = call i32 @OSSL_PARAM_get_octet_string_ptr(ptr noundef %67, ptr noundef %11, ptr noundef %14)
  %69 = icmp ne i32 %68, 0
  br i1 %69, label %71, label %70

70:                                               ; preds = %66
  store i32 0, ptr %4, align 4
  store i32 1, ptr %16, align 4
  br label %160

71:                                               ; preds = %66, %61
  %72 = load ptr, ptr %11, align 8, !tbaa !13
  %73 = icmp ne ptr %72, null
  br i1 %73, label %74, label %84

74:                                               ; preds = %71
  %75 = load i64, ptr %14, align 8, !tbaa !16
  %76 = load ptr, ptr %9, align 8, !tbaa !25
  %77 = getelementptr inbounds nuw %struct.ml_dsa_params_st, ptr %76, i32 0, i32 12
  %78 = load i64, ptr %77, align 8, !tbaa !30
  %79 = icmp ne i64 %75, %78
  br i1 %79, label %80, label %84

80:                                               ; preds = %74
  call void @ERR_new()
  call void @ERR_set_debug(ptr noundef @.str.3, i32 noundef 207, ptr noundef @__func__.ml_dsa_key_fromdata)
  %81 = load ptr, ptr %9, align 8, !tbaa !25
  %82 = getelementptr inbounds nuw %struct.ml_dsa_params_st, ptr %81, i32 0, i32 0
  %83 = load ptr, ptr %82, align 8, !tbaa !29
  call void (i32, i32, ptr, ...) @ERR_set_error(i32 noundef 57, i32 noundef 105, ptr noundef @.str.7, ptr noundef %83)
  store i32 0, ptr %4, align 4
  store i32 1, ptr %16, align 4
  br label %160

84:                                               ; preds = %74, %71
  br label %85

85:                                               ; preds = %84, %41
  %86 = load i64, ptr %15, align 8, !tbaa !16
  %87 = icmp eq i64 %86, 0
  br i1 %87, label %88, label %95

88:                                               ; preds = %85
  %89 = load i64, ptr %13, align 8, !tbaa !16
  %90 = icmp eq i64 %89, 0
  br i1 %90, label %91, label %95

91:                                               ; preds = %88
  %92 = load i64, ptr %14, align 8, !tbaa !16
  %93 = icmp eq i64 %92, 0
  br i1 %93, label %94, label %95

94:                                               ; preds = %91
  call void @ERR_new()
  call void @ERR_set_debug(ptr noundef @.str.3, i32 noundef 215, ptr noundef @__func__.ml_dsa_key_fromdata)
  call void (i32, i32, ptr, ...) @ERR_set_error(i32 noundef 57, i32 noundef 128, ptr noundef null)
  store i32 0, ptr %4, align 4
  store i32 1, ptr %16, align 4
  br label %160

95:                                               ; preds = %91, %88, %85
  %96 = load i64, ptr %15, align 8, !tbaa !16
  %97 = icmp ne i64 %96, 0
  br i1 %97, label %98, label %118

98:                                               ; preds = %95
  %99 = load i64, ptr %14, align 8, !tbaa !16
  %100 = icmp eq i64 %99, 0
  br i1 %100, label %105, label %101

101:                                              ; preds = %98
  %102 = load ptr, ptr %5, align 8, !tbaa !9
  %103 = call i32 @ossl_ml_dsa_key_prefer_seed(ptr noundef %102)
  %104 = icmp ne i32 %103, 0
  br i1 %104, label %105, label %118

105:                                              ; preds = %101, %98
  %106 = load ptr, ptr %5, align 8, !tbaa !9
  %107 = load ptr, ptr %12, align 8, !tbaa !13
  %108 = load i64, ptr %15, align 8, !tbaa !16
  %109 = call i32 @ossl_ml_dsa_set_prekey(ptr noundef %106, i32 noundef -1, i32 noundef -1, ptr noundef %107, i64 noundef %108, ptr noundef null, i64 noundef 0)
  %110 = icmp ne i32 %109, 0
  br i1 %110, label %112, label %111

111:                                              ; preds = %105
  store i32 0, ptr %4, align 4
  store i32 1, ptr %16, align 4
  br label %160

112:                                              ; preds = %105
  %113 = load ptr, ptr %5, align 8, !tbaa !9
  %114 = call i32 @ossl_ml_dsa_generate_key(ptr noundef %113)
  %115 = icmp ne i32 %114, 0
  br i1 %115, label %117, label %116

116:                                              ; preds = %112
  call void @ERR_new()
  call void @ERR_set_debug(ptr noundef @.str.3, i32 noundef 224, ptr noundef @__func__.ml_dsa_key_fromdata)
  call void (i32, i32, ptr, ...) @ERR_set_error(i32 noundef 57, i32 noundef 121, ptr noundef null)
  store i32 0, ptr %4, align 4
  store i32 1, ptr %16, align 4
  br label %160

117:                                              ; preds = %112
  br label %142

118:                                              ; preds = %101, %95
  %119 = load i64, ptr %14, align 8, !tbaa !16
  %120 = icmp ugt i64 %119, 0
  br i1 %120, label %121, label %129

121:                                              ; preds = %118
  %122 = load ptr, ptr %5, align 8, !tbaa !9
  %123 = load ptr, ptr %11, align 8, !tbaa !13
  %124 = load i64, ptr %14, align 8, !tbaa !16
  %125 = call i32 @ossl_ml_dsa_sk_decode(ptr noundef %122, ptr noundef %123, i64 noundef %124)
  %126 = icmp ne i32 %125, 0
  br i1 %126, label %128, label %127

127:                                              ; preds = %121
  store i32 0, ptr %4, align 4
  store i32 1, ptr %16, align 4
  br label %160

128:                                              ; preds = %121
  br label %141

129:                                              ; preds = %118
  %130 = load i64, ptr %13, align 8, !tbaa !16
  %131 = icmp ugt i64 %130, 0
  br i1 %131, label %132, label %140

132:                                              ; preds = %129
  %133 = load ptr, ptr %5, align 8, !tbaa !9
  %134 = load ptr, ptr %10, align 8, !tbaa !13
  %135 = load i64, ptr %13, align 8, !tbaa !16
  %136 = call i32 @ossl_ml_dsa_pk_decode(ptr noundef %133, ptr noundef %134, i64 noundef %135)
  %137 = icmp ne i32 %136, 0
  br i1 %137, label %139, label %138

138:                                              ; preds = %132
  store i32 0, ptr %4, align 4
  store i32 1, ptr %16, align 4
  br label %160

139:                                              ; preds = %132
  br label %140

140:                                              ; preds = %139, %129
  br label %141

141:                                              ; preds = %140, %128
  br label %142

142:                                              ; preds = %141, %117
  %143 = load i64, ptr %13, align 8, !tbaa !16
  %144 = icmp eq i64 %143, 0
  br i1 %144, label %157, label %145

145:                                              ; preds = %142
  %146 = load i64, ptr %15, align 8, !tbaa !16
  %147 = load i64, ptr %14, align 8, !tbaa !16
  %148 = add i64 %146, %147
  %149 = icmp eq i64 %148, 0
  br i1 %149, label %157, label %150

150:                                              ; preds = %145
  %151 = load ptr, ptr %5, align 8, !tbaa !9
  %152 = call ptr @ossl_ml_dsa_key_get_pub(ptr noundef %151)
  %153 = load ptr, ptr %10, align 8, !tbaa !13
  %154 = load i64, ptr %13, align 8, !tbaa !16
  %155 = call i32 @memcmp(ptr noundef %152, ptr noundef %153, i64 noundef %154) #6
  %156 = icmp eq i32 %155, 0
  br label %157

157:                                              ; preds = %150, %145, %142
  %158 = phi i1 [ true, %145 ], [ true, %142 ], [ %156, %150 ]
  %159 = zext i1 %158 to i32
  store i32 %159, ptr %4, align 4
  store i32 1, ptr %16, align 4
  br label %160

160:                                              ; preds = %157, %138, %127, %116, %111, %94, %80, %70, %60, %53, %37, %27
  call void @llvm.lifetime.end.p0(i64 8, ptr %15) #5
  call void @llvm.lifetime.end.p0(i64 8, ptr %14) #5
  call void @llvm.lifetime.end.p0(i64 8, ptr %13) #5
  call void @llvm.lifetime.end.p0(i64 8, ptr %12) #5
  call void @llvm.lifetime.end.p0(i64 8, ptr %11) #5
  call void @llvm.lifetime.end.p0(i64 8, ptr %10) #5
  call void @llvm.lifetime.end.p0(i64 8, ptr %9) #5
  call void @llvm.lifetime.end.p0(i64 8, ptr %8) #5
  %161 = load i32, ptr %4, align 4
  ret i32 %161
}

; Function Attrs: nounwind uwtable
define internal i32 @ml_dsa_import(ptr noundef %0, i32 noundef %1, ptr noundef %2) #0 {
  %4 = alloca i32, align 4
  %5 = alloca ptr, align 8
  %6 = alloca i32, align 4
  %7 = alloca ptr, align 8
  %8 = alloca ptr, align 8
  %9 = alloca i32, align 4
  %10 = alloca i32, align 4
  store ptr %0, ptr %5, align 8, !tbaa !3
  store i32 %1, ptr %6, align 4, !tbaa !7
  store ptr %2, ptr %7, align 8, !tbaa !11
  call void @llvm.lifetime.start.p0(i64 8, ptr %8) #5
  %11 = load ptr, ptr %5, align 8, !tbaa !3
  store ptr %11, ptr %8, align 8, !tbaa !9
  call void @llvm.lifetime.start.p0(i64 4, ptr %9) #5
  %12 = call i32 @ossl_prov_is_running()
  %13 = icmp ne i32 %12, 0
  br i1 %13, label %14, label %17

14:                                               ; preds = %3
  %15 = load ptr, ptr %8, align 8, !tbaa !9
  %16 = icmp eq ptr %15, null
  br i1 %16, label %17, label %18

17:                                               ; preds = %14, %3
  store i32 0, ptr %4, align 4
  store i32 1, ptr %10, align 4
  br label %32

18:                                               ; preds = %14
  %19 = load i32, ptr %6, align 4, !tbaa !7
  %20 = and i32 %19, 3
  %21 = icmp eq i32 %20, 0
  br i1 %21, label %22, label %23

22:                                               ; preds = %18
  store i32 0, ptr %4, align 4
  store i32 1, ptr %10, align 4
  br label %32

23:                                               ; preds = %18
  %24 = load i32, ptr %6, align 4, !tbaa !7
  %25 = and i32 %24, 1
  %26 = icmp ne i32 %25, 0
  %27 = zext i1 %26 to i32
  store i32 %27, ptr %9, align 4, !tbaa !7
  %28 = load ptr, ptr %8, align 8, !tbaa !9
  %29 = load ptr, ptr %7, align 8, !tbaa !11
  %30 = load i32, ptr %9, align 4, !tbaa !7
  %31 = call i32 @ml_dsa_key_fromdata(ptr noundef %28, ptr noundef %29, i32 noundef %30)
  store i32 %31, ptr %4, align 4
  store i32 1, ptr %10, align 4
  br label %32

32:                                               ; preds = %23, %22, %17
  call void @llvm.lifetime.end.p0(i64 4, ptr %9) #5
  call void @llvm.lifetime.end.p0(i64 8, ptr %8) #5
  %33 = load i32, ptr %4, align 4
  ret i32 %33
}