; Function Attrs: nounwind uwtable
define internal range(i32 0, 2) i32 @ml_dsa_import(ptr noundef %0, i32 noundef %1, ptr noundef %2) #0 {
  %4 = alloca ptr, align 8
  %5 = alloca ptr, align 8
  %6 = alloca ptr, align 8
  %7 = alloca i64, align 8
  %8 = alloca i64, align 8
  %9 = alloca i64, align 8
  %10 = tail call i32 @ossl_prov_is_running() #6
  %11 = icmp eq i32 %10, 0
  %12 = icmp eq ptr %0, null
  %or.cond = or i1 %12, %11
  %13 = and i32 %1, 3
  %14 = icmp eq i32 %13, 0
  %or.cond10 = or i1 %14, %or.cond
  br i1 %or.cond10, label %89, label %15

15:                                               ; preds = %3
  %16 = and i32 %1, 1
  %17 = tail call ptr @ossl_ml_dsa_key_params(ptr noundef nonnull %0) #6
  call void @llvm.lifetime.start.p0(i64 8, ptr nonnull %4) #6
  store ptr null, ptr %4, align 8, !tbaa !3
  call void @llvm.lifetime.start.p0(i64 8, ptr nonnull %5) #6
  store ptr null, ptr %5, align 8, !tbaa !3
  call void @llvm.lifetime.start.p0(i64 8, ptr nonnull %6) #6
  store ptr null, ptr %6, align 8, !tbaa !3
  call void @llvm.lifetime.start.p0(i64 8, ptr nonnull %7) #6
  store i64 0, ptr %7, align 8, !tbaa !8
  call void @llvm.lifetime.start.p0(i64 8, ptr nonnull %8) #6
  store i64 0, ptr %8, align 8, !tbaa !8
  call void @llvm.lifetime.start.p0(i64 8, ptr nonnull %9) #6
  store i64 0, ptr %9, align 8, !tbaa !8
  %18 = tail call ptr @OSSL_PARAM_locate_const(ptr noundef %2, ptr noundef nonnull @.str.2) #6
  %.not.i = icmp eq ptr %18, null
  br i1 %.not.i, label %.thread62.i, label %19

19:                                               ; preds = %15
  %20 = call i32 @OSSL_PARAM_get_octet_string_ptr(ptr noundef nonnull %18, ptr noundef nonnull %4, ptr noundef nonnull %7) #6
  %.not31.i = icmp eq i32 %20, 0
  br i1 %.not31.i, label %ml_dsa_key_fromdata.exit, label %21

21:                                               ; preds = %19
  %.pre.i = load ptr, ptr %4, align 8, !tbaa !3
  %22 = icmp eq ptr %.pre.i, null
  br i1 %22, label %.thread62.i, label %23

23:                                               ; preds = %21
  %24 = load i64, ptr %7, align 8, !tbaa !8
  %25 = getelementptr inbounds nuw i8, ptr %17, i64 72
  %26 = load i64, ptr %25, align 8, !tbaa !10
  %.not33.i = icmp eq i64 %24, %26
  br i1 %.not33.i, label %.thread62.i, label %27

27:                                               ; preds = %23
  call void @ERR_new() #6
  call void @ERR_set_debug(ptr noundef nonnull @.str.3, i32 noundef 186, ptr noundef nonnull @__func__.ml_dsa_key_fromdata) #6
  %28 = load ptr, ptr %17, align 8, !tbaa !13
  call void (i32, i32, ptr, ...) @ERR_set_error(i32 noundef 57, i32 noundef 105, ptr noundef nonnull @.str.4, ptr noundef %28) #6
  br label %ml_dsa_key_fromdata.exit

.thread62.i:                                      ; preds = %23, %21, %15
  %.not34.i = icmp eq i32 %16, 0
  br i1 %.not34.i, label %thread-pre-split.i, label %29

29:                                               ; preds = %.thread62.i
  %30 = call ptr @OSSL_PARAM_locate_const(ptr noundef %2, ptr noundef nonnull @.str.5) #6
  %.not35.i = icmp eq ptr %30, null
  br i1 %.not35.i, label %.thread64.i, label %31

31:                                               ; preds = %29
  %32 = call i32 @OSSL_PARAM_get_octet_string_ptr(ptr noundef nonnull %30, ptr noundef nonnull %6, ptr noundef nonnull %9) #6
  %.not36.i = icmp eq i32 %32, 0
  br i1 %.not36.i, label %ml_dsa_key_fromdata.exit, label %33

33:                                               ; preds = %31
  %.pre52.i = load ptr, ptr %6, align 8, !tbaa !3
  %.pre53.i = load i64, ptr %9, align 8
  %34 = icmp ne ptr %.pre52.i, null
  %35 = icmp ne i64 %.pre53.i, 32
  %36 = select i1 %34, i1 %35, i1 false
  br i1 %36, label %37, label %.thread64.i

37:                                               ; preds = %33
  call void @ERR_new() #6
  call void @ERR_set_debug(ptr noundef nonnull @.str.3, i32 noundef 199, ptr noundef nonnull @__func__.ml_dsa_key_fromdata) #6
  call void (i32, i32, ptr, ...) @ERR_set_error(i32 noundef 57, i32 noundef 154, ptr noundef null) #6
  br label %ml_dsa_key_fromdata.exit

.thread64.i:                                      ; preds = %33, %29
  %38 = call ptr @OSSL_PARAM_locate_const(ptr noundef %2, ptr noundef nonnull @.str.6) #6
  %.not37.i = icmp eq ptr %38, null
  br i1 %.not37.i, label %thread-pre-split.i, label %39

39:                                               ; preds = %.thread64.i
  %40 = call i32 @OSSL_PARAM_get_octet_string_ptr(ptr noundef nonnull %38, ptr noundef nonnull %5, ptr noundef nonnull %8) #6
  %.not38.i = icmp eq i32 %40, 0
  br i1 %.not38.i, label %ml_dsa_key_fromdata.exit, label %41

41:                                               ; preds = %39
  %.pre55.i = load ptr, ptr %5, align 8, !tbaa !3
  %.pr.pre.pre.i = load i64, ptr %8, align 8
  %42 = icmp eq ptr %.pre55.i, null
  br i1 %42, label %thread-pre-split.i, label %43

43:                                               ; preds = %41
  %44 = getelementptr inbounds nuw i8, ptr %17, i64 64
  %45 = load i64, ptr %44, align 8, !tbaa !14
  %.not40.i = icmp eq i64 %.pr.pre.pre.i, %45
  br i1 %.not40.i, label %thread-pre-split.i, label %46

46:                                               ; preds = %43
  call void @ERR_new() #6
  call void @ERR_set_debug(ptr noundef nonnull @.str.3, i32 noundef 207, ptr noundef nonnull @__func__.ml_dsa_key_fromdata) #6
  %47 = load ptr, ptr %17, align 8, !tbaa !13
  call void (i32, i32, ptr, ...) @ERR_set_error(i32 noundef 57, i32 noundef 105, ptr noundef nonnull @.str.7, ptr noundef %47) #6
  br label %ml_dsa_key_fromdata.exit

thread-pre-split.i:                               ; preds = %43, %41, %.thread64.i, %.thread62.i
  %48 = phi i64 [ %.pr.pre.pre.i, %43 ], [ 0, %.thread62.i ], [ %.pr.pre.pre.i, %41 ], [ 0, %.thread64.i ]
  %49 = load i64, ptr %9, align 8, !tbaa !8
  %50 = icmp eq i64 %49, 0
  %51 = load i64, ptr %7, align 8
  %52 = icmp eq i64 %51, 0
  %or.cond3.i = select i1 %50, i1 %52, i1 false
  %53 = icmp eq i64 %48, 0
  %or.cond5.i = select i1 %or.cond3.i, i1 %53, i1 false
  br i1 %or.cond5.i, label %54, label %55

54:                                               ; preds = %thread-pre-split.i
  call void @ERR_new() #6
  call void @ERR_set_debug(ptr noundef nonnull @.str.3, i32 noundef 215, ptr noundef nonnull @__func__.ml_dsa_key_fromdata) #6
  call void (i32, i32, ptr, ...) @ERR_set_error(i32 noundef 57, i32 noundef 128, ptr noundef null) #6
  br label %ml_dsa_key_fromdata.exit

55:                                               ; preds = %thread-pre-split.i
  br i1 %50, label %66, label %56

56:                                               ; preds = %55
  br i1 %53, label %59, label %57

57:                                               ; preds = %56
  %58 = call i32 @ossl_ml_dsa_key_prefer_seed(ptr noundef nonnull %0) #6
  %.not42.i = icmp eq i32 %58, 0
  br i1 %.not42.i, label %._crit_edge59.i, label %._crit_edge57.i

._crit_edge59.i:                                  ; preds = %57
  %.pre60.i = load i64, ptr %8, align 8, !tbaa !8
  br label %66

._crit_edge57.i:                                  ; preds = %57
  %.pre58.i = load i64, ptr %9, align 8, !tbaa !8
  br label %59

59:                                               ; preds = %._crit_edge57.i, %56
  %60 = phi i64 [ %.pre58.i, %._crit_edge57.i ], [ %49, %56 ]
  %61 = load ptr, ptr %6, align 8, !tbaa !3
  %62 = call i32 @ossl_ml_dsa_set_prekey(ptr noundef nonnull %0, i32 noundef -1, i32 noundef -1, ptr noundef %61, i64 noundef %60, ptr noundef null, i64 noundef 0) #6
  %.not47.i = icmp eq i32 %62, 0
  br i1 %.not47.i, label %ml_dsa_key_fromdata.exit, label %63

63:                                               ; preds = %59
  %64 = call i32 @ossl_ml_dsa_generate_key(ptr noundef nonnull %0) #6
  %.not48.i = icmp eq i32 %64, 0
  br i1 %.not48.i, label %65, label %76

65:                                               ; preds = %63
  call void @ERR_new() #6
  call void @ERR_set_debug(ptr noundef nonnull @.str.3, i32 noundef 224, ptr noundef nonnull @__func__.ml_dsa_key_fromdata) #6
  call void (i32, i32, ptr, ...) @ERR_set_error(i32 noundef 57, i32 noundef 121, ptr noundef null) #6
  br label %ml_dsa_key_fromdata.exit

66:                                               ; preds = %._crit_edge59.i, %55
  %67 = phi i64 [ %.pre60.i, %._crit_edge59.i ], [ %48, %55 ]
  %.not43.i = icmp eq i64 %67, 0
  br i1 %.not43.i, label %71, label %68

68:                                               ; preds = %66
  %69 = load ptr, ptr %5, align 8, !tbaa !3
  %70 = call i32 @ossl_ml_dsa_sk_decode(ptr noundef nonnull %0, ptr noundef %69, i64 noundef %67) #6
  %.not46.i = icmp eq i32 %70, 0
  br i1 %.not46.i, label %ml_dsa_key_fromdata.exit, label %76

71:                                               ; preds = %66
  %72 = load i64, ptr %7, align 8, !tbaa !8
  %.not44.i = icmp eq i64 %72, 0
  br i1 %.not44.i, label %ml_dsa_key_fromdata.exit, label %73

73:                                               ; preds = %71
  %74 = load ptr, ptr %4, align 8, !tbaa !3
  %75 = call i32 @ossl_ml_dsa_pk_decode(ptr noundef nonnull %0, ptr noundef %74, i64 noundef %72) #6
  %.not45.i = icmp eq i32 %75, 0
  br i1 %.not45.i, label %ml_dsa_key_fromdata.exit, label %76

76:                                               ; preds = %73, %68, %63
  %.pr50.i = load i64, ptr %7, align 8, !tbaa !8
  %77 = icmp eq i64 %.pr50.i, 0
  br i1 %77, label %ml_dsa_key_fromdata.exit, label %78

78:                                               ; preds = %76
  %79 = load i64, ptr %9, align 8, !tbaa !8
  %80 = load i64, ptr %8, align 8, !tbaa !8
  %81 = sub i64 0, %80
  %82 = icmp eq i64 %79, %81
  br i1 %82, label %ml_dsa_key_fromdata.exit, label %83

83:                                               ; preds = %78
  %84 = call ptr @ossl_ml_dsa_key_get_pub(ptr noundef nonnull %0) #6
  %85 = load ptr, ptr %4, align 8, !tbaa !3
  %86 = load i64, ptr %7, align 8, !tbaa !8
  %bcmp.i = call i32 @bcmp(ptr %84, ptr %85, i64 %86)
  %87 = icmp eq i32 %bcmp.i, 0
  %88 = zext i1 %87 to i32
  br label %ml_dsa_key_fromdata.exit

ml_dsa_key_fromdata.exit:                         ; preds = %19, %27, %31, %37, %39, %46, %54, %59, %65, %68, %71, %73, %76, %78, %83
  %.0.i = phi i32 [ 0, %27 ], [ 0, %37 ], [ 0, %46 ], [ 0, %54 ], [ 0, %65 ], [ 0, %19 ], [ 0, %31 ], [ 0, %39 ], [ 0, %59 ], [ 0, %68 ], [ 0, %73 ], [ 1, %78 ], [ 1, %76 ], [ %88, %83 ], [ 1, %71 ]
  call void @llvm.lifetime.end.p0(i64 8, ptr nonnull %9) #6
  call void @llvm.lifetime.end.p0(i64 8, ptr nonnull %8) #6
  call void @llvm.lifetime.end.p0(i64 8, ptr nonnull %7) #6
  call void @llvm.lifetime.end.p0(i64 8, ptr nonnull %6) #6
  call void @llvm.lifetime.end.p0(i64 8, ptr nonnull %5) #6
  call void @llvm.lifetime.end.p0(i64 8, ptr nonnull %4) #6
  br label %89

89:                                               ; preds = %3, %ml_dsa_key_fromdata.exit
  %.0 = phi i32 [ %.0.i, %ml_dsa_key_fromdata.exit ], [ 0, %3 ]
  ret i32 %.0
}